; Function Attrs: mustprogress nofree norecurse nosync nounwind willreturn memory(argmem: write) uwtable
define dso_local void @_ZN5clang4ento14ObjCIvarRegionC2EPKNS_12ObjCIvarDeclEPKNS0_9SubRegionE(ptr nocapture noundef nonnull writeonly align 8 dereferenceable(64) %0, ptr noundef %1, ptr noundef %2) unnamed_addr #5 align 2 {
  %4 = getelementptr inbounds i8, ptr %0, i64 8
  store ptr null, ptr %4, align 8
  %5 = getelementptr inbounds nuw i8, ptr %0, i64 16
  store i32 21, ptr %5, align 8
  %6 = getelementptr inbounds i8, ptr %0, i64 40
  store i8 0, ptr %6, align 8
  %7 = getelementptr inbounds nuw i8, ptr %0, i64 48
  store ptr %2, ptr %7, align 8
  store ptr getelementptr inbounds inrange(-16, 120) (i8, ptr @_ZTVN5clang4ento14ObjCIvarRegionE, i64 16), ptr %0, align 8
  %8 = getelementptr inbounds nuw i8, ptr %0, i64 56
  store ptr %1, ptr %8, align 8
  ret void
}